; Function Attrs: mustprogress nounwind uwtable
define internal noundef i64 @"_ZN5folly6detail8function13DispatchSmall4execIZN8facebook5velox5cache7SsdFile10checkpointEbE3$_0EEmNS1_2OpEPNS1_4DataESB_"(i32 noundef %o, ptr nocapture noundef %src, ptr nocapture noundef writeonly %dst) #3 align 2 personality ptr @__gxx_personality_v0 {
entry:
  switch i32 %o, label %sw.epilog [
    i32 0, label %sw.bb
    i32 1, label %sw.bb1
  ]

sw.bb:                                            ; preds = %entry
  %0 = load ptr, ptr %src, align 8
  store ptr %0, ptr %dst, align 8
  %_M_refcount.i.i.i = getelementptr inbounds i8, ptr %dst, i64 8
  store ptr null, ptr %_M_refcount.i.i.i, align 8
  %_M_refcount4.i.i.i = getelementptr inbounds i8, ptr %src, i64 8
  %1 = load ptr, ptr %_M_refcount4.i.i.i, align 8
  store ptr null, ptr %_M_refcount4.i.i.i, align 8
  store ptr %1, ptr %_M_refcount.i.i.i, align 8
  store ptr null, ptr %src, align 8
  br label %sw.bb1

sw.bb1:                                           ; preds = %sw.bb, %entry
  %2 = getelementptr i8, ptr %src, i64 8
  %src.val = load ptr, ptr %2, align 8
  %cmp.not.i.i.i.i = icmp eq ptr %src.val, null
  br i1 %cmp.not.i.i.i.i, label %sw.epilog, label %if.then.i.i.i.i

if.then.i.i.i.i:                                  ; preds = %sw.bb1
  %_M_use_count.i.i.i.i.i = getelementptr inbounds i8, ptr %src.val, i64 8
  %3 = load atomic i64, ptr %_M_use_count.i.i.i.i.i acquire, align 8
  %cmp.i.i.i.i.i = icmp eq i64 %3, 4294967297
  %4 = trunc i64 %3 to i32
  br i1 %cmp.i.i.i.i.i, label %if.then.i.i.i.i.i, label %if.end.i.i.i.i.i

if.then.i.i.i.i.i:                                ; preds = %if.then.i.i.i.i
  store i32 0, ptr %_M_use_count.i.i.i.i.i, align 8
  %_M_weak_count.i.i.i.i.i = getelementptr inbounds i8, ptr %src.val, i64 12
  store i32 0, ptr %_M_weak_count.i.i.i.i.i, align 4
  %vtable.i.i.i.i.i = load ptr, ptr %src.val, align 8
  %vfn.i.i.i.i.i = getelementptr inbounds i8, ptr %vtable.i.i.i.i.i, i64 16
  %5 = load ptr, ptr %vfn.i.i.i.i.i, align 8
  tail call void %5(ptr noundef nonnull align 8 dereferenceable(16) %src.val) #34
  br label %if.end8.sink.split.i.i.i.i.i

if.end.i.i.i.i.i:                                 ; preds = %if.then.i.i.i.i
  %6 = load i8, ptr @__libc_single_threaded, align 1
  %tobool.i.i.not.i.i.i.i.i = icmp eq i8 %6, 0
  br i1 %tobool.i.i.not.i.i.i.i.i, label %if.else.i.i.i.i.i.i, label %if.then.i.i.i.i.i.i

if.then.i.i.i.i.i.i:                              ; preds = %if.end.i.i.i.i.i
  %add.i.i.i.i.i.i = add nsw i32 %4, -1
  store i32 %add.i.i.i.i.i.i, ptr %_M_use_count.i.i.i.i.i, align 4
  br label %_ZN9__gnu_cxx27__exchange_and_add_dispatchEPii.exit.i.i.i.i.i

if.else.i.i.i.i.i.i:                              ; preds = %if.end.i.i.i.i.i
  %7 = atomicrmw volatile add ptr %_M_use_count.i.i.i.i.i, i32 -1 acq_rel, align 4
  br label %_ZN9__gnu_cxx27__exchange_and_add_dispatchEPii.exit.i.i.i.i.i

_ZN9__gnu_cxx27__exchange_and_add_dispatchEPii.exit.i.i.i.i.i: ; preds = %if.else.i.i.i.i.i.i, %if.then.i.i.i.i.i.i
  %retval.i.0.i.i.i.i.i = phi i32 [ %4, %if.then.i.i.i.i.i.i ], [ %7, %if.else.i.i.i.i.i.i ]
  %cmp6.i.i.i.i.i = icmp eq i32 %retval.i.0.i.i.i.i.i, 1
  br i1 %cmp6.i.i.i.i.i, label %if.then7.i.i.i.i.i, label %sw.epilog

if.then7.i.i.i.i.i:                               ; preds = %_ZN9__gnu_cxx27__exchange_and_add_dispatchEPii.exit.i.i.i.i.i
  %vtable.i.i.i.i.i.i.i = load ptr, ptr %src.val, align 8
  %vfn.i.i.i.i.i.i.i = getelementptr inbounds i8, ptr %vtable.i.i.i.i.i.i.i, i64 16
  %8 = load ptr, ptr %vfn.i.i.i.i.i.i.i, align 8
  tail call void %8(ptr noundef nonnull align 8 dereferenceable(16) %src.val) #34
  %_M_weak_count.i.i.i.i.i.i.i = getelementptr inbounds i8, ptr %src.val, i64 12
  %9 = load i8, ptr @__libc_single_threaded, align 1
  %tobool.i.i.not.i.i.i.i.i.i.i = icmp eq i8 %9, 0
  br i1 %tobool.i.i.not.i.i.i.i.i.i.i, label %if.else.i.i.i.i.i.i.i.i, label %if.then.i.i.i.i.i.i.i.i

if.then.i.i.i.i.i.i.i.i:                          ; preds = %if.then7.i.i.i.i.i
  %10 = load i32, ptr %_M_weak_count.i.i.i.i.i.i.i, align 4
  %add.i.i.i.i.i.i.i.i = add nsw i32 %10, -1
  store i32 %add.i.i.i.i.i.i.i.i, ptr %_M_weak_count.i.i.i.i.i.i.i, align 4
  br label %_ZN9__gnu_cxx27__exchange_and_add_dispatchEPii.exit.i.i.i.i.i.i.i

if.else.i.i.i.i.i.i.i.i:                          ; preds = %if.then7.i.i.i.i.i
  %11 = atomicrmw volatile add ptr %_M_weak_count.i.i.i.i.i.i.i, i32 -1 acq_rel, align 4
  br label %_ZN9__gnu_cxx27__exchange_and_add_dispatchEPii.exit.i.i.i.i.i.i.i

_ZN9__gnu_cxx27__exchange_and_add_dispatchEPii.exit.i.i.i.i.i.i.i: ; preds = %if.else.i.i.i.i.i.i.i.i, %if.then.i.i.i.i.i.i.i.i
  %retval.i.0.i.i.i.i.i.i.i = phi i32 [ %10, %if.then.i.i.i.i.i.i.i.i ], [ %11, %if.else.i.i.i.i.i.i.i.i ]
  %cmp.i.i.i.i.i.i.i = icmp eq i32 %retval.i.0.i.i.i.i.i.i.i, 1
  br i1 %cmp.i.i.i.i.i.i.i, label %if.end8.sink.split.i.i.i.i.i, label %sw.epilog

if.end8.sink.split.i.i.i.i.i:                     ; preds = %_ZN9__gnu_cxx27__exchange_and_add_dispatchEPii.exit.i.i.i.i.i.i.i, %if.then.i.i.i.i.i
  %vtable2.i.i.i.i.i.i.i = load ptr, ptr %src.val, align 8
  %vfn3.i.i.i.i.i.i.i = getelementptr inbounds i8, ptr %vtable2.i.i.i.i.i.i.i, i64 24
  %12 = load ptr, ptr %vfn3.i.i.i.i.i.i.i, align 8
  tail call void %12(ptr noundef nonnull align 8 dereferenceable(16) %src.val) #34
  br label %sw.epilog

sw.epilog:                                        ; preds = %if.end8.sink.split.i.i.i.i.i, %_ZN9__gnu_cxx27__exchange_and_add_dispatchEPii.exit.i.i.i.i.i.i.i, %_ZN9__gnu_cxx27__exchange_and_add_dispatchEPii.exit.i.i.i.i.i, %sw.bb1, %entry
  ret i64 0
}